; Function Attrs: mustprogress uwtable
define dso_local void @_ZNSt3__111timed_mutex4lockEv(ptr noundef nonnull align 8 dereferenceable(89) %0) local_unnamed_addr #0 align 2 personality ptr @__gxx_personality_v0 {
  %2 = alloca %"class.std::__1::unique_lock", align 8
  call void @llvm.lifetime.start.p0(i64 16, ptr nonnull %2) #10
  store ptr %0, ptr %2, align 8, !tbaa !5
  %3 = getelementptr inbounds nuw i8, ptr %2, i64 8
  store i8 1, ptr %3, align 8, !tbaa !12
  %4 = tail call noundef i32 @pthread_mutex_lock(ptr noundef nonnull align 8 dereferenceable(40) %0) #10
  %.not.i.i = icmp eq i32 %4, 0
  br i1 %.not.i.i, label %_ZNSt3__111unique_lockINS_5mutexEEC2B8ne210000ERS1_.exit.preheader, label %9

_ZNSt3__111unique_lockINS_5mutexEEC2B8ne210000ERS1_.exit.preheader: ; preds = %1
  %5 = getelementptr inbounds nuw i8, ptr %0, i64 88
  %6 = load i8, ptr %5, align 8, !tbaa !13, !range !17, !noundef !18
  %7 = trunc nuw i8 %6 to i1
  br i1 %7, label %.lr.ph, label %_ZNSt3__111unique_lockINS_5mutexEEC2B8ne210000ERS1_.exit._crit_edge.thread

_ZNSt3__111unique_lockINS_5mutexEEC2B8ne210000ERS1_.exit._crit_edge.thread: ; preds = %_ZNSt3__111unique_lockINS_5mutexEEC2B8ne210000ERS1_.exit.preheader
  store i8 1, ptr %5, align 8, !tbaa !13
  br label %13

.lr.ph:                                           ; preds = %_ZNSt3__111unique_lockINS_5mutexEEC2B8ne210000ERS1_.exit.preheader
  %8 = getelementptr inbounds nuw i8, ptr %0, i64 40
  br label %_ZNSt3__111unique_lockINS_5mutexEEC2B8ne210000ERS1_.exit

9:                                                ; preds = %1
  tail call void @_ZNSt3__120__throw_system_errorEiPKc(i32 noundef %4, ptr noundef nonnull @.str) #11
  unreachable

_ZNSt3__111unique_lockINS_5mutexEEC2B8ne210000ERS1_.exit: ; preds = %.lr.ph, %_ZNSt3__111unique_lockINS_5mutexEEC2B8ne210000ERS1_.exit
  call void @_ZNSt3__118condition_variable4waitERNS_11unique_lockINS_5mutexEEE(ptr noundef nonnull align 8 dereferenceable(48) %8, ptr noundef nonnull align 8 dereferenceable(9) %2) #10
  %10 = load i8, ptr %5, align 8, !tbaa !13, !range !17, !noundef !18
  %11 = trunc nuw i8 %10 to i1
  br i1 %11, label %_ZNSt3__111unique_lockINS_5mutexEEC2B8ne210000ERS1_.exit, label %_ZNSt3__111unique_lockINS_5mutexEEC2B8ne210000ERS1_.exit._crit_edge, !llvm.loop !19

_ZNSt3__111unique_lockINS_5mutexEEC2B8ne210000ERS1_.exit._crit_edge: ; preds = %_ZNSt3__111unique_lockINS_5mutexEEC2B8ne210000ERS1_.exit
  %.pre = load i8, ptr %3, align 8, !tbaa !12, !range !17
  %12 = trunc nuw i8 %.pre to i1
  store i8 1, ptr %5, align 8, !tbaa !13
  br i1 %12, label %13, label %_ZNSt3__111unique_lockINS_5mutexEED2B8ne210000Ev.exit

13:                                               ; preds = %_ZNSt3__111unique_lockINS_5mutexEEC2B8ne210000ERS1_.exit._crit_edge.thread, %_ZNSt3__111unique_lockINS_5mutexEEC2B8ne210000ERS1_.exit._crit_edge
  %14 = load ptr, ptr %2, align 8, !tbaa !5
  %15 = call noundef i32 @pthread_mutex_unlock(ptr noundef nonnull align 8 dereferenceable(40) %14) #10
  br label %_ZNSt3__111unique_lockINS_5mutexEED2B8ne210000Ev.exit

_ZNSt3__111unique_lockINS_5mutexEED2B8ne210000Ev.exit: ; preds = %_ZNSt3__111unique_lockINS_5mutexEEC2B8ne210000ERS1_.exit._crit_edge, %13
  call void @llvm.lifetime.end.p0(i64 16, ptr nonnull %2) #10
  ret void
}